; Function Attrs: null_pointer_is_valid sspstrong uwtable
define ptr @find_conversation_full(i32 noundef %0, ptr noundef %1) local_unnamed_addr #0 {
  %3 = tail call fastcc ptr @conversation_element_list_name(ptr noundef null, ptr noundef %1)
  %4 = load ptr, ptr @conversation_hashtable_element_list, align 8
  %5 = tail call ptr @wmem_map_lookup(ptr noundef %4, ptr noundef %3)
  tail call void @g_free(ptr noundef %3)
  %.not = icmp eq ptr %5, null
  br i1 %.not, label %conversation_lookup_hashtable.exit, label %6

6:                                                ; preds = %2
  %7 = tail call ptr @wmem_map_lookup(ptr noundef nonnull %5, ptr noundef %1)
  %.not.i = icmp eq ptr %7, null
  br i1 %.not.i, label %conversation_lookup_hashtable.exit, label %8

8:                                                ; preds = %6
  %9 = getelementptr inbounds nuw i8, ptr %7, i64 28
  %10 = load i32, ptr %9, align 4
  %.not33.i = icmp ugt i32 %10, %0
  br i1 %.not33.i, label %conversation_lookup_hashtable.exit, label %11

11:                                               ; preds = %8
  %12 = getelementptr inbounds nuw i8, ptr %7, i64 8
  %13 = load ptr, ptr %12, align 8
  %.not34.i = icmp eq ptr %13, null
  br i1 %.not34.i, label %17, label %14

14:                                               ; preds = %11
  %15 = getelementptr inbounds nuw i8, ptr %13, i64 28
  %16 = load i32, ptr %15, align 4
  %.not35.i = icmp ugt i32 %16, %0
  br i1 %.not35.i, label %17, label %conversation_lookup_hashtable.exit

17:                                               ; preds = %14, %11
  %18 = getelementptr inbounds nuw i8, ptr %7, i64 16
  %19 = load ptr, ptr %18, align 8
  %.not36.i = icmp eq ptr %19, null
  br i1 %.not36.i, label %.preheader, label %20

20:                                               ; preds = %17
  %21 = getelementptr inbounds nuw i8, ptr %19, i64 28
  %22 = load i32, ptr %21, align 4
  %.not37.i = icmp ugt i32 %22, %0
  %spec.select.i = select i1 %.not37.i, ptr %7, ptr %19
  br label %.preheader

.preheader:                                       ; preds = %20, %17
  %.02644.i.ph = phi ptr [ %spec.select.i, %20 ], [ %7, %17 ]
  br label %23

23:                                               ; preds = %.preheader, %26
  %.245.i = phi ptr [ %spec.select41.i, %26 ], [ %.02644.i.ph, %.preheader ]
  %.02644.i = phi ptr [ %30, %26 ], [ %.02644.i.ph, %.preheader ]
  %24 = getelementptr inbounds nuw i8, ptr %.02644.i, i64 28
  %25 = load i32, ptr %24, align 4
  %.not39.i = icmp ugt i32 %25, %0
  br i1 %.not39.i, label %.critedge.i, label %26

26:                                               ; preds = %23
  %27 = getelementptr inbounds nuw i8, ptr %.245.i, i64 28
  %28 = load i32, ptr %27, align 4
  %29 = icmp ugt i32 %25, %28
  %spec.select41.i = select i1 %29, ptr %.02644.i, ptr %.245.i
  %30 = load ptr, ptr %.02644.i, align 8
  %.not38.i = icmp eq ptr %30, null
  br i1 %.not38.i, label %.critedge.i, label %23, !llvm.loop !13

.critedge.i:                                      ; preds = %26, %23
  %.2.lcssa.i = phi ptr [ %.245.i, %23 ], [ %spec.select41.i, %26 ]
  %.not40.i = icmp eq ptr %.2.lcssa.i, null
  br i1 %.not40.i, label %conversation_lookup_hashtable.exit, label %31

31:                                               ; preds = %.critedge.i
  store ptr %.2.lcssa.i, ptr %18, align 8
  br label %conversation_lookup_hashtable.exit

conversation_lookup_hashtable.exit:               ; preds = %31, %.critedge.i, %14, %8, %6, %2
  %.0 = phi ptr [ null, %2 ], [ %13, %14 ], [ %.2.lcssa.i, %31 ], [ null, %.critedge.i ], [ null, %8 ], [ null, %6 ]
  ret ptr %.0
}